target datalayout = "e-m:e-p270:32:32-p271:32:32-p272:64:64-i64:64-i128:128-f80:128-n8:16:32:64-S128"
target triple = "x86_64-pc-linux-gnu"

%struct.free_envelope_list = type { ptr, ptr }
%struct.envelope = type { i32, ptr, ptr, ptr, ptr, i64, ptr, i32, %struct.tMPI_Atomic, i32, ptr, ptr, i32, ptr, ptr, ptr, ptr }
%struct.tMPI_Atomic = type { i32, [60 x i8] }
%struct.recv_envelope_list = type { ptr, %struct.envelope }
%struct.req_list = type { ptr, ptr }
%struct.tmpi_thread = type { ptr, %struct.recv_envelope_list, ptr, %struct.free_envelope_list, %struct.tMPI_Atomic, %struct.tMPI_Event_t, %struct.req_list, ptr, ptr, ptr, ptr, i32, ptr }
%struct.tMPI_Event_t = type { %struct.tMPI_Atomic, i32 }

; Function Attrs: mustprogress nounwind uwtable
define internal void @_ZL25tMPI_Recv_env_list_removeP8envelope(ptr noundef %0) #3 {
  %2 = alloca ptr, align 8
  store ptr %0, ptr %2, align 8, !tbaa !53
  %3 = load ptr, ptr %2, align 8, !tbaa !53
  %4 = getelementptr inbounds nuw %struct.envelope, ptr %3, i32 0, i32 11
  %5 = load ptr, ptr %4, align 8, !tbaa !14
  %6 = icmp ne ptr %5, null
  br i1 %6, label %7, label %15

7:                                                ; preds = %1
  %8 = load ptr, ptr %2, align 8, !tbaa !53
  %9 = getelementptr inbounds nuw %struct.envelope, ptr %8, i32 0, i32 10
  %10 = load ptr, ptr %9, align 8, !tbaa !32
  %11 = load ptr, ptr %2, align 8, !tbaa !53
  %12 = getelementptr inbounds nuw %struct.envelope, ptr %11, i32 0, i32 11
  %13 = load ptr, ptr %12, align 8, !tbaa !14
  %14 = getelementptr inbounds nuw %struct.envelope, ptr %13, i32 0, i32 10
  store ptr %10, ptr %14, align 8, !tbaa !32
  br label %15

15:                                               ; preds = %7, %1
  %16 = load ptr, ptr %2, align 8, !tbaa !53
  %17 = getelementptr inbounds nuw %struct.envelope, ptr %16, i32 0, i32 10
  %18 = load ptr, ptr %17, align 8, !tbaa !32
  %19 = icmp ne ptr %18, null
  br i1 %19, label %20, label %28

20:                                               ; preds = %15
  %21 = load ptr, ptr %2, align 8, !tbaa !53
  %22 = getelementptr inbounds nuw %struct.envelope, ptr %21, i32 0, i32 11
  %23 = load ptr, ptr %22, align 8, !tbaa !14
  %24 = load ptr, ptr %2, align 8, !tbaa !53
  %25 = getelementptr inbounds nuw %struct.envelope, ptr %24, i32 0, i32 10
  %26 = load ptr, ptr %25, align 8, !tbaa !32
  %27 = getelementptr inbounds nuw %struct.envelope, ptr %26, i32 0, i32 11
  store ptr %23, ptr %27, align 8, !tbaa !14
  br label %28

28:                                               ; preds = %20, %15
  %29 = load ptr, ptr %2, align 8, !tbaa !53
  %30 = getelementptr inbounds nuw %struct.envelope, ptr %29, i32 0, i32 10
  store ptr null, ptr %30, align 8, !tbaa !32
  %31 = load ptr, ptr %2, align 8, !tbaa !53
  %32 = getelementptr inbounds nuw %struct.envelope, ptr %31, i32 0, i32 11
  store ptr null, ptr %32, align 8, !tbaa !14
  %33 = load ptr, ptr %2, align 8, !tbaa !53
  %34 = getelementptr inbounds nuw %struct.envelope, ptr %33, i32 0, i32 15
  store ptr null, ptr %34, align 8, !tbaa !23
  ret void
}

; Function Attrs: inlinehint mustprogress nounwind uwtable
define internal noundef i32 @_ZL21tMPI_Atomic_fetch_addP11tMPI_Atomici(ptr noundef %0, i32 noundef %1) #5 {
  %3 = alloca ptr, align 8
  %4 = alloca i32, align 4
  store ptr %0, ptr %3, align 8, !tbaa !102
  store volatile i32 %1, ptr %4, align 4, !tbaa !8
  %5 = load ptr, ptr %3, align 8, !tbaa !102
  %6 = getelementptr inbounds nuw %struct.tMPI_Atomic, ptr %5, i32 0, i32 0
  %7 = load volatile i32, ptr %4, align 4, !tbaa !8
  %8 = atomicrmw add ptr %6, i32 %7 seq_cst, align 4
  ret i32 %8
}

; Function Attrs: mustprogress uwtable
define internal void @_ZL9tMPI_XferP11tmpi_threadP8envelopeS2_(ptr noundef %0, ptr noundef %1, ptr noundef %2) #0 {
  %4 = alloca ptr, align 8
  %5 = alloca ptr, align 8
  %6 = alloca ptr, align 8
  %7 = alloca ptr, align 8
  %8 = alloca i32, align 4
  store ptr %0, ptr %4, align 8, !tbaa !72
  store ptr %1, ptr %5, align 8, !tbaa !53
  store ptr %2, ptr %6, align 8, !tbaa !53
  %9 = load ptr, ptr %5, align 8, !tbaa !53
  %10 = getelementptr inbounds nuw %struct.envelope, ptr %9, i32 0, i32 2
  %11 = load ptr, ptr %10, align 8, !tbaa !56
  %12 = load ptr, ptr %6, align 8, !tbaa !53
  %13 = getelementptr inbounds nuw %struct.envelope, ptr %12, i32 0, i32 2
  store ptr %11, ptr %13, align 8, !tbaa !56
  %14 = load ptr, ptr %5, align 8, !tbaa !53
  %15 = getelementptr inbounds nuw %struct.envelope, ptr %14, i32 0, i32 0
  %16 = load i32, ptr %15, align 8, !tbaa !82
  %17 = load ptr, ptr %6, align 8, !tbaa !53
  %18 = getelementptr inbounds nuw %struct.envelope, ptr %17, i32 0, i32 0
  store i32 %16, ptr %18, align 8, !tbaa !82
  %19 = load ptr, ptr %5, align 8, !tbaa !53
  %20 = getelementptr inbounds nuw %struct.envelope, ptr %19, i32 0, i32 5
  %21 = load i64, ptr %20, align 8, !tbaa !89
  %22 = icmp ne i64 %21, 0
  br i1 %22, label %23, label %85

23:                                               ; preds = %3
  call void @llvm.lifetime.start.p0(i64 8, ptr %7) #7
  %24 = load ptr, ptr %5, align 8, !tbaa !53
  %25 = getelementptr inbounds nuw %struct.envelope, ptr %24, i32 0, i32 4
  %26 = load ptr, ptr %25, align 8, !tbaa !85
  store ptr %26, ptr %7, align 8, !tbaa !73
  %27 = load ptr, ptr %5, align 8, !tbaa !53
  %28 = getelementptr inbounds nuw %struct.envelope, ptr %27, i32 0, i32 5
  %29 = load i64, ptr %28, align 8, !tbaa !89
  %30 = load ptr, ptr %6, align 8, !tbaa !53
  %31 = getelementptr inbounds nuw %struct.envelope, ptr %30, i32 0, i32 5
  %32 = load i64, ptr %31, align 8, !tbaa !89
  %33 = icmp ugt i64 %29, %32
  br i1 %33, label %34, label %49

34:                                               ; preds = %23
  %35 = load ptr, ptr %6, align 8, !tbaa !53
  %36 = getelementptr inbounds nuw %struct.envelope, ptr %35, i32 0, i32 1
  %37 = load ptr, ptr %36, align 8, !tbaa !58
  %38 = call noundef i32 @_Z10tMPI_ErrorP10tmpi_comm_i(ptr noundef %37, i32 noundef 13)
  %39 = load ptr, ptr %6, align 8, !tbaa !53
  %40 = getelementptr inbounds nuw %struct.envelope, ptr %39, i32 0, i32 8
  %41 = getelementptr inbounds nuw %struct.tMPI_Atomic, ptr %40, i32 0, i32 0
  store i32 3, ptr %41, align 4, !tbaa !92
  %42 = load ptr, ptr %5, align 8, !tbaa !53
  %43 = getelementptr inbounds nuw %struct.envelope, ptr %42, i32 0, i32 8
  %44 = getelementptr inbounds nuw %struct.tMPI_Atomic, ptr %43, i32 0, i32 0
  store i32 3, ptr %44, align 4, !tbaa !92
  %45 = load ptr, ptr %6, align 8, !tbaa !53
  %46 = getelementptr inbounds nuw %struct.envelope, ptr %45, i32 0, i32 9
  store i32 13, ptr %46, align 4, !tbaa !93
  %47 = load ptr, ptr %5, align 8, !tbaa !53
  %48 = getelementptr inbounds nuw %struct.envelope, ptr %47, i32 0, i32 9
  store i32 13, ptr %48, align 4, !tbaa !93
  store i32 1, ptr %8, align 4
  br label %82

49:                                               ; preds = %23
  %50 = load ptr, ptr %6, align 8, !tbaa !53
  %51 = getelementptr inbounds nuw %struct.envelope, ptr %50, i32 0, i32 4
  %52 = load ptr, ptr %51, align 8, !tbaa !85
  %53 = icmp ne ptr %52, null
  br i1 %53, label %54, label %59

54:                                               ; preds = %49
  %55 = load ptr, ptr %5, align 8, !tbaa !53
  %56 = getelementptr inbounds nuw %struct.envelope, ptr %55, i32 0, i32 4
  %57 = load ptr, ptr %56, align 8, !tbaa !85
  %58 = icmp ne ptr %57, null
  br i1 %58, label %74, label %59

59:                                               ; preds = %54, %49
  %60 = load ptr, ptr %6, align 8, !tbaa !53
  %61 = getelementptr inbounds nuw %struct.envelope, ptr %60, i32 0, i32 1
  %62 = load ptr, ptr %61, align 8, !tbaa !58
  %63 = call noundef i32 @_Z10tMPI_ErrorP10tmpi_comm_i(ptr noundef %62, i32 noundef 17)
  %64 = load ptr, ptr %6, align 8, !tbaa !53
  %65 = getelementptr inbounds nuw %struct.envelope, ptr %64, i32 0, i32 8
  %66 = getelementptr inbounds nuw %struct.tMPI_Atomic, ptr %65, i32 0, i32 0
  store i32 3, ptr %66, align 4, !tbaa !92
  %67 = load ptr, ptr %5, align 8, !tbaa !53
  %68 = getelementptr inbounds nuw %struct.envelope, ptr %67, i32 0, i32 8
  %69 = getelementptr inbounds nuw %struct.tMPI_Atomic, ptr %68, i32 0, i32 0
  store i32 3, ptr %69, align 4, !tbaa !92
  %70 = load ptr, ptr %6, align 8, !tbaa !53
  %71 = getelementptr inbounds nuw %struct.envelope, ptr %70, i32 0, i32 9
  store i32 17, ptr %71, align 4, !tbaa !93
  %72 = load ptr, ptr %5, align 8, !tbaa !53
  %73 = getelementptr inbounds nuw %struct.envelope, ptr %72, i32 0, i32 9
  store i32 17, ptr %73, align 4, !tbaa !93
  store i32 1, ptr %8, align 4
  br label %82

74:                                               ; preds = %54
  %75 = load ptr, ptr %6, align 8, !tbaa !53
  %76 = getelementptr inbounds nuw %struct.envelope, ptr %75, i32 0, i32 4
  %77 = load ptr, ptr %76, align 8, !tbaa !85
  %78 = load ptr, ptr %7, align 8, !tbaa !73
  %79 = load ptr, ptr %5, align 8, !tbaa !53
  %80 = getelementptr inbounds nuw %struct.envelope, ptr %79, i32 0, i32 5
  %81 = load i64, ptr %80, align 8, !tbaa !89
  call void @llvm.memcpy.p0.p0.i64(ptr align 1 %77, ptr align 1 %78, i64 %81, i1 false)
  store i32 0, ptr %8, align 4
  br label %82

82:                                               ; preds = %74, %59, %34
  call void @llvm.lifetime.end.p0(i64 8, ptr %7) #7
  %83 = load i32, ptr %8, align 4
  switch i32 %83, label %110 [
    i32 0, label %84
    i32 1, label %109
  ]

84:                                               ; preds = %82
  br label %85

85:                                               ; preds = %84, %3
  %86 = load ptr, ptr %5, align 8, !tbaa !53
  %87 = getelementptr inbounds nuw %struct.envelope, ptr %86, i32 0, i32 5
  %88 = load i64, ptr %87, align 8, !tbaa !89
  %89 = load ptr, ptr %6, align 8, !tbaa !53
  %90 = getelementptr inbounds nuw %struct.envelope, ptr %89, i32 0, i32 5
  store i64 %88, ptr %90, align 8, !tbaa !89
  %91 = load ptr, ptr %6, align 8, !tbaa !53
  %92 = getelementptr inbounds nuw %struct.envelope, ptr %91, i32 0, i32 8
  %93 = getelementptr inbounds nuw %struct.tMPI_Atomic, ptr %92, i32 0, i32 0
  store i32 3, ptr %93, align 4, !tbaa !92
  %94 = load ptr, ptr %5, align 8, !tbaa !53
  %95 = getelementptr inbounds nuw %struct.envelope, ptr %94, i32 0, i32 8
  %96 = getelementptr inbounds nuw %struct.tMPI_Atomic, ptr %95, i32 0, i32 0
  store i32 3, ptr %96, align 4, !tbaa !92
  %97 = load ptr, ptr %6, align 8, !tbaa !53
  %98 = getelementptr inbounds nuw %struct.envelope, ptr %97, i32 0, i32 2
  %99 = load ptr, ptr %98, align 8, !tbaa !56
  %100 = getelementptr inbounds nuw %struct.tmpi_thread, ptr %99, i32 0, i32 4
  %101 = call noundef i32 @_ZL21tMPI_Atomic_fetch_addP11tMPI_Atomici(ptr noundef %100, i32 noundef 1)
  fence seq_cst
  %102 = load ptr, ptr %6, align 8, !tbaa !53
  %103 = getelementptr inbounds nuw %struct.envelope, ptr %102, i32 0, i32 2
  %104 = load ptr, ptr %103, align 8, !tbaa !56
  %105 = getelementptr inbounds nuw %struct.tmpi_thread, ptr %104, i32 0, i32 5
  %106 = getelementptr inbounds nuw %struct.tMPI_Event_t, ptr %105, i32 0, i32 0
  %107 = call noundef i32 @_ZL21tMPI_Atomic_fetch_addP11tMPI_Atomici(ptr noundef %106, i32 noundef 1)
  %108 = load ptr, ptr %6, align 8, !tbaa !53
  call void @_ZL25tMPI_Recv_env_list_removeP8envelope(ptr noundef %108)
  br label %109

109:                                              ; preds = %85, %82
  ret void

110:                                              ; preds = %82
  unreachable
}