; Function Attrs: mustprogress uwtable
define internal fastcc void @_ZL9tMPI_XferP11tmpi_threadP8envelopeS2_(ptr noundef nonnull captures(none) initializes((60, 64)) %0, ptr noundef nonnull captures(none) initializes((0, 4), (16, 24), (60, 64)) %1) unnamed_addr #0 {
  %3 = alloca i32, align 4
  %4 = alloca i32, align 4
  %5 = getelementptr inbounds nuw i8, ptr %0, i64 16
  %6 = load ptr, ptr %5, align 8, !tbaa !47
  %7 = getelementptr inbounds nuw i8, ptr %1, i64 16
  store ptr %6, ptr %7, align 8, !tbaa !47
  %8 = load i32, ptr %0, align 8, !tbaa !62
  store i32 %8, ptr %1, align 8, !tbaa !62
  %9 = getelementptr inbounds nuw i8, ptr %0, i64 40
  %10 = load i64, ptr %9, align 8, !tbaa !70
  %.not = icmp eq i64 %10, 0
  br i1 %.not, label %37, label %11

11:                                               ; preds = %2
  %12 = getelementptr inbounds nuw i8, ptr %0, i64 32
  %13 = load ptr, ptr %12, align 8, !tbaa !65
  %14 = getelementptr inbounds nuw i8, ptr %1, i64 40
  %15 = load i64, ptr %14, align 8, !tbaa !70
  %16 = icmp ugt i64 %10, %15
  br i1 %16, label %17, label %25

17:                                               ; preds = %11
  %18 = getelementptr inbounds nuw i8, ptr %1, i64 8
  %19 = load ptr, ptr %18, align 8, !tbaa !49
  %20 = tail call noundef i32 @_Z10tMPI_ErrorP10tmpi_comm_i(ptr noundef %19, i32 noundef 13)
  %21 = getelementptr inbounds nuw i8, ptr %1, i64 60
  store i32 3, ptr %21, align 4, !tbaa !73
  %22 = getelementptr inbounds nuw i8, ptr %0, i64 60
  store i32 3, ptr %22, align 4, !tbaa !73
  %23 = getelementptr inbounds nuw i8, ptr %1, i64 124
  store i32 13, ptr %23, align 4, !tbaa !74
  %24 = getelementptr inbounds nuw i8, ptr %0, i64 124
  store i32 13, ptr %24, align 4, !tbaa !74
  br label %.thread

25:                                               ; preds = %11
  %26 = getelementptr inbounds nuw i8, ptr %1, i64 32
  %27 = load ptr, ptr %26, align 8, !tbaa !65
  %.not33 = icmp eq ptr %27, null
  %.not34 = icmp eq ptr %13, null
  %or.cond = select i1 %.not33, i1 true, i1 %.not34
  br i1 %or.cond, label %28, label %36

28:                                               ; preds = %25
  %29 = getelementptr inbounds nuw i8, ptr %1, i64 8
  %30 = load ptr, ptr %29, align 8, !tbaa !49
  %31 = tail call noundef i32 @_Z10tMPI_ErrorP10tmpi_comm_i(ptr noundef %30, i32 noundef 17)
  %32 = getelementptr inbounds nuw i8, ptr %1, i64 60
  store i32 3, ptr %32, align 4, !tbaa !73
  %33 = getelementptr inbounds nuw i8, ptr %0, i64 60
  store i32 3, ptr %33, align 4, !tbaa !73
  %34 = getelementptr inbounds nuw i8, ptr %1, i64 124
  store i32 17, ptr %34, align 4, !tbaa !74
  %35 = getelementptr inbounds nuw i8, ptr %0, i64 124
  store i32 17, ptr %35, align 4, !tbaa !74
  br label %.thread

36:                                               ; preds = %25
  tail call void @llvm.memcpy.p0.p0.i64(ptr nonnull align 1 %27, ptr nonnull align 1 %13, i64 %10, i1 false)
  %.pre = load i64, ptr %9, align 8, !tbaa !70
  %.pre3 = load ptr, ptr %7, align 8, !tbaa !47
  br label %37

37:                                               ; preds = %36, %2
  %38 = phi ptr [ %.pre3, %36 ], [ %6, %2 ]
  %39 = phi i64 [ %.pre, %36 ], [ 0, %2 ]
  %40 = getelementptr inbounds nuw i8, ptr %1, i64 40
  store i64 %39, ptr %40, align 8, !tbaa !70
  %41 = getelementptr inbounds nuw i8, ptr %1, i64 60
  store i32 3, ptr %41, align 4, !tbaa !73
  %42 = getelementptr inbounds nuw i8, ptr %0, i64 60
  store i32 3, ptr %42, align 4, !tbaa !73
  %43 = getelementptr inbounds nuw i8, ptr %38, i64 224
  call void @llvm.lifetime.start.p0(i64 4, ptr nonnull %4)
  store volatile i32 1, ptr %4, align 4, !tbaa !75
  %.0..0..0..0..0..0..i = load volatile i32, ptr %4, align 4, !tbaa !75
  %44 = atomicrmw add ptr %43, i32 %.0..0..0..0..0..0..i seq_cst, align 4
  call void @llvm.lifetime.end.p0(i64 4, ptr nonnull %4)
  fence seq_cst
  %45 = load ptr, ptr %7, align 8, !tbaa !47
  %46 = getelementptr inbounds nuw i8, ptr %45, i64 288
  call void @llvm.lifetime.start.p0(i64 4, ptr nonnull %3)
  store volatile i32 1, ptr %3, align 4, !tbaa !75
  %.0..0..0..0..0..0..i35 = load volatile i32, ptr %3, align 4, !tbaa !75
  %47 = atomicrmw add ptr %46, i32 %.0..0..0..0..0..0..i35 seq_cst, align 4
  call void @llvm.lifetime.end.p0(i64 4, ptr nonnull %3)
  %48 = getelementptr inbounds nuw i8, ptr %1, i64 136
  %49 = load ptr, ptr %48, align 8, !tbaa !10
  %.not.i = icmp eq ptr %49, null
  %.phi.trans.insert.i = getelementptr inbounds nuw i8, ptr %1, i64 128
  %.pre.i = load ptr, ptr %.phi.trans.insert.i, align 8, !tbaa !26
  br i1 %.not.i, label %._crit_edge.i, label %50

50:                                               ; preds = %37
  %51 = getelementptr inbounds nuw i8, ptr %49, i64 128
  store ptr %.pre.i, ptr %51, align 8, !tbaa !26
  br label %._crit_edge.i

._crit_edge.i:                                    ; preds = %50, %37
  %.not10.i = icmp eq ptr %.pre.i, null
  br i1 %.not10.i, label %_ZL25tMPI_Recv_env_list_removeP8envelope.exit, label %52

52:                                               ; preds = %._crit_edge.i
  %53 = getelementptr inbounds nuw i8, ptr %.pre.i, i64 136
  store ptr %49, ptr %53, align 8, !tbaa !10
  br label %_ZL25tMPI_Recv_env_list_removeP8envelope.exit

_ZL25tMPI_Recv_env_list_removeP8envelope.exit:    ; preds = %._crit_edge.i, %52
  %54 = getelementptr inbounds nuw i8, ptr %1, i64 168
  store ptr null, ptr %54, align 8, !tbaa !28
  tail call void @llvm.memset.p0.i64(ptr noundef nonnull align 8 dereferenceable(16) %.phi.trans.insert.i, i8 0, i64 16, i1 false)
  br label %.thread

.thread:                                          ; preds = %28, %17, %_ZL25tMPI_Recv_env_list_removeP8envelope.exit
  ret void
}